; Function Attrs: nounwind uwtable
define internal void @_render_rect(ptr noundef %0, ptr noundef %1, ptr noundef %2) #0 {
  %4 = alloca %struct._lv_matrix_t, align 4
  %5 = alloca %struct.lv_area_t, align 4
  call void @llvm.lifetime.start.p0(i64 36, ptr nonnull %4) #9
  %6 = getelementptr inbounds nuw i8, ptr %1, i64 392
  %7 = call ptr @lv_memcpy(ptr noundef nonnull %4, ptr noundef nonnull %6, i64 noundef 36) #9
  %8 = getelementptr inbounds nuw i8, ptr %0, i64 464
  call void @lv_matrix_multiply(ptr noundef nonnull %6, ptr noundef nonnull %8) #9
  %.not = icmp eq ptr %2, null
  br i1 %.not, label %10, label %9

9:                                                ; preds = %3
  call void @lv_matrix_multiply(ptr noundef nonnull %6, ptr noundef nonnull %2) #9
  br label %10

10:                                               ; preds = %9, %3
  %11 = getelementptr inbounds nuw i8, ptr %0, i64 592
  %12 = load float, ptr %11, align 8, !tbaa !170
  %13 = fcmp ogt float %12, 0.000000e+00
  %14 = getelementptr inbounds nuw i8, ptr %0, i64 596
  %15 = load float, ptr %14, align 4, !tbaa !171
  %16 = fcmp oeq float %15, 0.000000e+00
  %or.cond37 = select i1 %13, i1 %16, i1 false
  br i1 %or.cond37, label %17, label %._crit_edge

17:                                               ; preds = %10
  store float %12, ptr %14, align 4, !tbaa !171
  br label %21

._crit_edge:                                      ; preds = %10
  %18 = fcmp ogt float %15, 0.000000e+00
  %19 = fcmp oeq float %12, 0.000000e+00
  %or.cond = and i1 %19, %18
  br i1 %or.cond, label %20, label %21

20:                                               ; preds = %._crit_edge
  store float %15, ptr %11, align 8, !tbaa !170
  br label %21

21:                                               ; preds = %._crit_edge, %20, %17
  %22 = call ptr @lv_vector_path_create(i32 noundef 0) #9
  call void @llvm.lifetime.start.p0(i64 16, ptr nonnull %5) #9
  %23 = getelementptr inbounds nuw i8, ptr %0, i64 576
  %24 = load float, ptr %23, align 8, !tbaa !172
  %25 = fptosi float %24 to i32
  store i32 %25, ptr %5, align 4, !tbaa !157
  %26 = getelementptr inbounds nuw i8, ptr %5, i64 4
  %27 = getelementptr inbounds nuw i8, ptr %0, i64 580
  %28 = load float, ptr %27, align 4, !tbaa !173
  %29 = fptosi float %28 to i32
  store i32 %29, ptr %26, align 4, !tbaa !158
  %30 = getelementptr inbounds nuw i8, ptr %5, i64 8
  %31 = getelementptr inbounds nuw i8, ptr %0, i64 584
  %32 = load float, ptr %31, align 8, !tbaa !174
  %33 = fadd float %24, %32
  %34 = fptosi float %33 to i32
  store i32 %34, ptr %30, align 4, !tbaa !160
  %35 = getelementptr inbounds nuw i8, ptr %5, i64 12
  %36 = getelementptr inbounds nuw i8, ptr %0, i64 588
  %37 = load float, ptr %36, align 4, !tbaa !175
  %38 = fadd float %28, %37
  %39 = fptosi float %38 to i32
  store i32 %39, ptr %35, align 4, !tbaa !162
  %40 = load float, ptr %11, align 8, !tbaa !170
  %41 = getelementptr inbounds nuw i8, ptr %0, i64 596
  %42 = load float, ptr %41, align 4, !tbaa !171
  call void @lv_vector_path_append_rect(ptr noundef %22, ptr noundef nonnull %5, float noundef %40, float noundef %42) #9
  %43 = getelementptr inbounds nuw i8, ptr %1, i64 8
  %44 = getelementptr inbounds nuw i8, ptr %0, i64 512
  %45 = load ptr, ptr %44, align 8, !tbaa !124
  %.not.i = icmp eq ptr %45, null
  br i1 %.not.i, label %.loopexit31.i, label %46

46:                                               ; preds = %21
  %47 = getelementptr inbounds nuw i8, ptr %0, i64 504
  %.02334.i = load ptr, ptr %47, align 8, !tbaa !4
  %.not2635.i = icmp eq ptr %.02334.i, null
  br i1 %.not2635.i, label %.loopexit31.i, label %.lr.ph.i

.lr.ph.i:                                         ; preds = %46, %56
  %.02336.i = phi ptr [ %.023.i, %56 ], [ %.02334.i, %46 ]
  %48 = getelementptr inbounds nuw i8, ptr %.02336.i, i64 16
  %49 = load ptr, ptr %48, align 8, !tbaa !121
  %.not27.i = icmp eq ptr %49, null
  br i1 %.not27.i, label %56, label %50

50:                                               ; preds = %.lr.ph.i
  %51 = call i32 @strcmp(ptr noundef nonnull dereferenceable(1) %45, ptr noundef nonnull dereferenceable(1) %49) #10
  %52 = icmp eq i32 %51, 0
  br i1 %52, label %53, label %56

53:                                               ; preds = %50
  %54 = getelementptr inbounds nuw i8, ptr %.02336.i, i64 528
  %55 = load ptr, ptr %54, align 8, !tbaa !176
  call void %55(ptr noundef nonnull %.02336.i, ptr noundef nonnull %43, ptr noundef %0, i1 noundef zeroext true) #9
  br label %.loopexit31.i

56:                                               ; preds = %50, %.lr.ph.i
  %.023.i = load ptr, ptr %.02336.i, align 8, !tbaa !4
  %.not26.i = icmp eq ptr %.023.i, null
  br i1 %.not26.i, label %.loopexit31.i, label %.lr.ph.i, !llvm.loop !177

.loopexit31.i:                                    ; preds = %56, %53, %46, %21
  %57 = getelementptr inbounds nuw i8, ptr %0, i64 520
  %58 = load ptr, ptr %57, align 8, !tbaa !126
  %.not28.i = icmp eq ptr %58, null
  br i1 %.not28.i, label %_copy_draw_dsc_from_ref.exit, label %59

59:                                               ; preds = %.loopexit31.i
  %60 = getelementptr inbounds nuw i8, ptr %0, i64 504
  %.037.i = load ptr, ptr %60, align 8, !tbaa !4
  %.not2938.i = icmp eq ptr %.037.i, null
  br i1 %.not2938.i, label %_copy_draw_dsc_from_ref.exit, label %.lr.ph40.i

.lr.ph40.i:                                       ; preds = %59, %69
  %.039.i = phi ptr [ %.0.i, %69 ], [ %.037.i, %59 ]
  %61 = getelementptr inbounds nuw i8, ptr %.039.i, i64 16
  %62 = load ptr, ptr %61, align 8, !tbaa !121
  %.not30.i = icmp eq ptr %62, null
  br i1 %.not30.i, label %69, label %63

63:                                               ; preds = %.lr.ph40.i
  %64 = call i32 @strcmp(ptr noundef nonnull dereferenceable(1) %58, ptr noundef nonnull dereferenceable(1) %62) #10
  %65 = icmp eq i32 %64, 0
  br i1 %65, label %66, label %69

66:                                               ; preds = %63
  %67 = getelementptr inbounds nuw i8, ptr %.039.i, i64 528
  %68 = load ptr, ptr %67, align 8, !tbaa !176
  call void %68(ptr noundef nonnull %.039.i, ptr noundef nonnull %43, ptr noundef %0, i1 noundef zeroext false) #9
  br label %_copy_draw_dsc_from_ref.exit

69:                                               ; preds = %63, %.lr.ph40.i
  %.0.i = load ptr, ptr %.039.i, align 8, !tbaa !4
  %.not29.i = icmp eq ptr %.0.i, null
  br i1 %.not29.i, label %_copy_draw_dsc_from_ref.exit, label %.lr.ph40.i, !llvm.loop !178

_copy_draw_dsc_from_ref.exit:                     ; preds = %69, %.loopexit31.i, %59, %66
  call void @lv_vector_dsc_add_path(ptr noundef %1, ptr noundef %22) #9
  call void @lv_vector_path_delete(ptr noundef %22) #9
  %70 = call ptr @lv_memcpy(ptr noundef nonnull %6, ptr noundef nonnull %4, i64 noundef 36) #9
  call void @llvm.lifetime.end.p0(i64 16, ptr nonnull %5) #9
  call void @llvm.lifetime.end.p0(i64 36, ptr nonnull %4) #9
  ret void
}